target datalayout = "e-m:e-p270:32:32-p271:32:32-p272:64:64-i64:64-i128:128-f80:128-n8:16:32:64-S128"
target triple = "x86_64-pc-linux-gnu"

%struct.DdManager = type { %struct.DdNode, ptr, ptr, ptr, ptr, ptr, ptr, ptr, i32, i32, double, double, double, i32, i32, i32, i32, i32, i32, ptr, ptr, %struct.DdSubtable, i32, i32, i32, i32, i32, i32, i32, double, i32, i32, i32, ptr, i64, double, i32, ptr, ptr, ptr, ptr, ptr, ptr, ptr, i32, ptr, ptr, ptr, ptr, ptr, ptr, i32, i32, i32, double, i32, i32, i32, i32, double, double, i32, i32, i32, i32, i32, i32, i32, i32, i32, ptr, ptr, i32, i32, i32, i32, i32, i32, ptr, ptr, ptr, ptr, ptr, ptr, ptr, ptr, i32, i64, i64, i64, i32, i64, i64, double, double, double, double, double, double, i32, ptr, ptr, i64 }
%struct.DdNode = type { i32, i32, ptr, %union.anon, i64 }
%union.anon = type { %struct.DdChildren }
%struct.DdChildren = type { ptr, ptr }
%struct.DdSubtable = type { ptr, i32, i32, i32, i32, i32, i32, i32, i32, i32, i32, i32 }
%struct.DdHook = type { ptr, ptr }

; Function Attrs: nounwind uwtable
define i32 @Cudd_RemoveHook(ptr noundef %0, ptr noundef %1, i32 noundef %2) #0 {
  %4 = alloca i32, align 4
  %5 = alloca ptr, align 8
  %6 = alloca ptr, align 8
  %7 = alloca i32, align 4
  %8 = alloca ptr, align 8
  %9 = alloca ptr, align 8
  store ptr %0, ptr %5, align 8
  store ptr %1, ptr %6, align 8
  store i32 %2, ptr %7, align 4
  %10 = load i32, ptr %7, align 4
  switch i32 %10, label %23 [
    i32 0, label %11
    i32 1, label %14
    i32 2, label %17
    i32 3, label %20
  ]

11:                                               ; preds = %3
  %12 = load ptr, ptr %5, align 8
  %13 = getelementptr inbounds %struct.DdManager, ptr %12, i32 0, i32 80
  store ptr %13, ptr %8, align 8
  br label %24

14:                                               ; preds = %3
  %15 = load ptr, ptr %5, align 8
  %16 = getelementptr inbounds %struct.DdManager, ptr %15, i32 0, i32 81
  store ptr %16, ptr %8, align 8
  br label %24

17:                                               ; preds = %3
  %18 = load ptr, ptr %5, align 8
  %19 = getelementptr inbounds %struct.DdManager, ptr %18, i32 0, i32 82
  store ptr %19, ptr %8, align 8
  br label %24

20:                                               ; preds = %3
  %21 = load ptr, ptr %5, align 8
  %22 = getelementptr inbounds %struct.DdManager, ptr %21, i32 0, i32 83
  store ptr %22, ptr %8, align 8
  br label %24

23:                                               ; preds = %3
  store i32 0, ptr %4, align 4
  br label %54

24:                                               ; preds = %20, %17, %14, %11
  %25 = load ptr, ptr %8, align 8
  %26 = load ptr, ptr %25, align 8
  store ptr %26, ptr %9, align 8
  br label %27

27:                                               ; preds = %47, %24
  %28 = load ptr, ptr %9, align 8
  %29 = icmp ne ptr %28, null
  br i1 %29, label %30, label %53

30:                                               ; preds = %27
  %31 = load ptr, ptr %9, align 8
  %32 = getelementptr inbounds %struct.DdHook, ptr %31, i32 0, i32 0
  %33 = load ptr, ptr %32, align 8
  %34 = load ptr, ptr %6, align 8
  %35 = icmp eq ptr %33, %34
  br i1 %35, label %36, label %47

36:                                               ; preds = %30
  %37 = load ptr, ptr %9, align 8
  %38 = getelementptr inbounds %struct.DdHook, ptr %37, i32 0, i32 1
  %39 = load ptr, ptr %38, align 8
  %40 = load ptr, ptr %8, align 8
  store ptr %39, ptr %40, align 8
  %41 = load ptr, ptr %9, align 8
  %42 = icmp ne ptr %41, null
  br i1 %42, label %43, label %45

43:                                               ; preds = %36
  %44 = load ptr, ptr %9, align 8
  call void @free(ptr noundef %44) #8
  store ptr null, ptr %9, align 8
  br label %46

45:                                               ; preds = %36
  br label %46

46:                                               ; preds = %45, %43
  store i32 1, ptr %4, align 4
  br label %54

47:                                               ; preds = %30
  %48 = load ptr, ptr %9, align 8
  %49 = getelementptr inbounds %struct.DdHook, ptr %48, i32 0, i32 1
  store ptr %49, ptr %8, align 8
  %50 = load ptr, ptr %9, align 8
  %51 = getelementptr inbounds %struct.DdHook, ptr %50, i32 0, i32 1
  %52 = load ptr, ptr %51, align 8
  store ptr %52, ptr %9, align 8
  br label %27, !llvm.loop !32

53:                                               ; preds = %27
  store i32 0, ptr %4, align 4
  br label %54

54:                                               ; preds = %53, %46, %23
  %55 = load i32, ptr %4, align 4
  ret i32 %55
}