; Function Attrs: nounwind uwtable
define range(i32 0, 2) i32 @Cudd_RemoveHook(ptr noundef captures(none) %0, ptr noundef readnone %1, i32 noundef %2) local_unnamed_addr #0 {
  %4 = icmp ult i32 %2, 4
  br i1 %4, label %switch.lookup, label %.loopexit

switch.lookup:                                    ; preds = %3
  %5 = shl nuw nsw i32 %2, 3
  %6 = or disjoint i32 %5, 576
  %switch.offset = zext nneg i32 %6 to i64
  %7 = getelementptr inbounds nuw i8, ptr %0, i64 %switch.offset
  %.019 = load ptr, ptr %7, align 8
  %.not20 = icmp eq ptr %.019, null
  br i1 %.not20, label %.loopexit, label %.lr.ph.preheader

.lr.ph.preheader:                                 ; preds = %switch.lookup
  %8 = load ptr, ptr %.019, align 8
  %9 = icmp eq ptr %8, %1
  br i1 %9, label %.lr.ph._crit_edge, label %.lr.ph30

.lr.ph:                                           ; preds = %.lr.ph30
  %10 = load ptr, ptr %.0, align 8
  %11 = icmp eq ptr %10, %1
  br i1 %11, label %.lr.ph._crit_edge.loopexit, label %.lr.ph30, !llvm.loop !31

.lr.ph._crit_edge.loopexit:                       ; preds = %.lr.ph
  %12 = getelementptr inbounds nuw i8, ptr %.02229, i64 8
  br label %.lr.ph._crit_edge

.lr.ph._crit_edge:                                ; preds = %.lr.ph._crit_edge.loopexit, %.lr.ph.preheader
  %.022.lcssa = phi ptr [ %.019, %.lr.ph.preheader ], [ %.0, %.lr.ph._crit_edge.loopexit ]
  %.121.lcssa = phi ptr [ %7, %.lr.ph.preheader ], [ %12, %.lr.ph._crit_edge.loopexit ]
  %13 = getelementptr inbounds nuw i8, ptr %.022.lcssa, i64 8
  %14 = load ptr, ptr %13, align 8
  store ptr %14, ptr %.121.lcssa, align 8
  tail call void @free(ptr noundef nonnull %.022.lcssa) #20
  br label %.loopexit

.lr.ph30:                                         ; preds = %.lr.ph.preheader, %.lr.ph
  %.02229 = phi ptr [ %.0, %.lr.ph ], [ %.019, %.lr.ph.preheader ]
  %15 = getelementptr inbounds nuw i8, ptr %.02229, i64 8
  %.0 = load ptr, ptr %15, align 8
  %.not = icmp eq ptr %.0, null
  br i1 %.not, label %.loopexit, label %.lr.ph, !llvm.loop !31

.loopexit:                                        ; preds = %.lr.ph30, %3, %switch.lookup, %.lr.ph._crit_edge
  %.016 = phi i32 [ 1, %.lr.ph._crit_edge ], [ 0, %3 ], [ 0, %switch.lookup ], [ 0, %.lr.ph30 ]
  ret i32 %.016
}